
lock:     file format elf64-x86-64


Disassembly of section .text:

0000000000401000 <_start>:
  401000:	b8 01 00 00 00       	mov    eax,0x1
  401005:	bf 01 00 00 00       	mov    edi,0x1
  40100a:	48 be 00 20 40 00 00 	movabs rsi,0x402000
  401011:	00 00 00
  401014:	48 8b 14 25 1e 20 40 	mov    rdx,QWORD PTR ds:0x40201e
  40101b:	00
  40101c:	0f 05                	syscall


  40101e:	b8 00 00 00 00       	mov    eax,0x0
  401023:	bf 01 00 00 00       	mov    edi,0x1
  401028:	48 be 26 20 40 00 00 	movabs rsi,0x402026
  40102f:	00 00 00
  401032:	ba 32 00 00 00       	mov    edx,0x32
  401037:	0f 05                	syscall


  401039:	48 8b 04 25 26 20 40 	mov    rax,QWORD PTR ds:0x402026;inputBuf
  401040:	00
  401041:	48 03 04 25 64 20 40 	add    rax,QWORD PTR ds:0x402064;mask
  401048:	00
  401049:	48 3b 04 25 2f 20 40 	cmp    rax,QWORD PTR ds:0x40202f;checkBuf
  401050:	00
  401051:	74 23                	je     401076 <askPassword.denAccess>


  401053:	48 be 4e 20 40 00 00 	movabs rsi,0x40204e
  40105a:	00 00 00
  40105d:	48 8b 14 25 5c 20 40 	mov    rdx,QWORD PTR ds:0x40205c
  401064:	00
  401065:	b8 01 00 00 00       	mov    eax,0x1
  40106a:	bf 01 00 00 00       	mov    edi,0x1
  40106f:	0f 05                	syscall
  401071:	e8 8a ff ff ff       	call   401000 <_start>

0000000000401076 <askPassword.denAccess>:
  401076:	48 be 37 20 40 00 00 	movabs rsi,0x402037
  40107d:	00 00 00
  401080:	48 8b 14 25 46 20 40 	mov    rdx,QWORD PTR ds:0x402046
  401087:	00
  401088:	b8 01 00 00 00       	mov    eax,0x1
  40108d:	bf 01 00 00 00       	mov    edi,0x1
  401092:	0f 05                	syscall

  401094:	b8 3c 00 00 00       	mov    eax,0x3c
  401099:	48 31 ff             	xor    rdi,rdi
  40109c:	0f 05                	syscall
